target datalayout = "e-m:e-p270:32:32-p271:32:32-p272:64:64-i64:64-i128:128-f80:128-n8:16:32:64-S128"
target triple = "x86_64-pc-linux-gnu"

%struct.ntlmdata = type { i32, [8 x i8], i32, ptr }
%struct.Curl_easy = type { i32, i64, i64, ptr, %struct.Curl_llist_node, %struct.Curl_llist_node, i32, i32, %struct.Curl_message, %struct.easy_pollset, %struct.Names, ptr, ptr, ptr, ptr, %struct.SingleRequest, %struct.UserDefined, ptr, ptr, ptr, %struct.Progress, %struct.UrlState, ptr, %struct.PureInfo, %struct.curl_tlssessioninfo }
%struct.Curl_llist_node = type { ptr, ptr, ptr, ptr }
%struct.Curl_message = type { %struct.Curl_llist_node, %struct.CURLMsg }
%struct.CURLMsg = type { i32, ptr, %union.anon }
%union.anon = type { ptr }
%struct.easy_pollset = type { [5 x i32], i32, [5 x i8] }
%struct.Names = type { ptr, i32 }
%struct.SingleRequest = type <{ i64, i64, i64, i64, %struct.curltime, i32, i32, i32, i32, i64, i32, i32, i8, i8, [2 x i8], i32, ptr, ptr, %struct.bufq, i64, i64, ptr, ptr, %union.anon.0, ptr, i8, i32, [3 x i8] }>
%struct.curltime = type { i64, i32 }
%struct.bufq = type { ptr, ptr, ptr, ptr, i64, i64, i64, i32 }
%union.anon.0 = type { ptr }
%struct.UserDefined = type <{ ptr, ptr, ptr, ptr, ptr, ptr, i64, i64, i64, ptr, ptr, i64, ptr, ptr, ptr, ptr, ptr, ptr, ptr, ptr, ptr, ptr, ptr, ptr, ptr, ptr, ptr, ptr, ptr, ptr, ptr, ptr, ptr, ptr, ptr, i64, i64, i64, i64, i64, i64, i64, i64, i64, ptr, ptr, %struct.curl_mimepart, ptr, ptr, ptr, i64, %struct.ssl_config_data, %struct.ssl_config_data, ptr, i16, i8, i8, %struct.ssl_general_config, i32, i32, i32, [4 x i8], ptr, ptr, i64, i32, i8, i8, i8, i8, ptr, ptr, ptr, i32, [4 x i8], [74 x ptr], [8 x ptr], i32, i32, i32, [4 x i8], ptr, i32, [4 x i8], ptr, ptr, ptr, ptr, ptr, i32, i32, i32, i32, i32, i32, i32, i32, i64, ptr, ptr, i64, ptr, i64, ptr, ptr, ptr, ptr, i32, i16, i16, i16, i8, i8, i8, i8, i8, i8, i8, i8, i64, [6 x i8] }>
%struct.curl_mimepart = type { ptr, ptr, i32, i32, ptr, ptr, ptr, ptr, ptr, ptr, ptr, ptr, ptr, ptr, ptr, i64, %struct.mime_state, ptr, %struct.mime_encoder_state, i64 }
%struct.mime_state = type { i32, ptr, i64 }
%struct.mime_encoder_state = type { i64, i64, i64, [256 x i8] }
%struct.ssl_config_data = type { %struct.ssl_primary_config, i64, ptr, ptr, ptr, ptr, ptr, ptr, ptr, i16 }
%struct.ssl_primary_config = type { ptr, ptr, ptr, ptr, ptr, ptr, ptr, ptr, ptr, ptr, ptr, ptr, ptr, ptr, i8, i32, i8, i8 }
%struct.ssl_general_config = type { i32 }
%struct.Progress = type { i64, %struct.pgrs_dir, %struct.pgrs_dir, i64, i64, i32, i32, i64, i64, i64, i64, i64, i64, i64, i64, i64, %struct.curltime, %struct.curltime, %struct.curltime, %struct.curltime, %struct.curltime, [6 x i64], [6 x %struct.curltime], i32, i8 }
%struct.pgrs_dir = type { i64, i64, i64, %struct.pgrs_measure }
%struct.pgrs_measure = type { %struct.curltime, i64 }
%struct.UrlState = type { %struct.curltime, i64, i64, %struct.dynbuf, ptr, i64, ptr, i32, i32, i32, ptr, i32, i64, i32, ptr, %struct.digestdata, %struct.digestdata, %struct.auth, %struct.auth, %struct.Curl_async, ptr, i8, %struct.curltime, %struct.Curl_tree, %struct.Curl_llist, [15 x %struct.time_node], ptr, ptr, i64, i64, i64, i64, [32 x i8], i64, ptr, ptr, ptr, %struct.urlpieces, ptr, ptr, ptr, ptr, ptr, i64, %struct.dynbuf, %struct.Curl_llist, [2 x %struct.curl_header], ptr, i32, ptr, ptr, %struct.store_netrc, %struct.dynamically_allocated_data, i8, i8, i8, i8, i32 }
%struct.digestdata = type { ptr, ptr, ptr, ptr, ptr, ptr, i32, i8, i8 }
%struct.auth = type { i64, i64, i64, i8 }
%struct.Curl_async = type { ptr, ptr, ptr, ptr, i32, i32, i8 }
%struct.Curl_tree = type { ptr, ptr, ptr, ptr, %struct.curltime, ptr }
%struct.time_node = type { %struct.Curl_llist_node, %struct.curltime, i32 }
%struct.urlpieces = type { ptr, ptr, ptr, ptr, ptr, ptr, ptr, ptr }
%struct.dynbuf = type { ptr, i64, i64, i64 }
%struct.Curl_llist = type { ptr, ptr, ptr, i64 }
%struct.curl_header = type { ptr, ptr, i64, i64, i32, ptr }
%struct.store_netrc = type { %struct.dynbuf, ptr, i8 }
%struct.dynamically_allocated_data = type { ptr, ptr, ptr, ptr, ptr, ptr, ptr, ptr, ptr, ptr, ptr, ptr, ptr, ptr }
%struct.PureInfo = type { i32, i32, i32, i64, i64, i64, i64, i64, i64, i64, ptr, ptr, i64, i32, %struct.ip_quadruple, i32, ptr, i32, %struct.curl_certinfo, i32, i8 }
%struct.ip_quadruple = type { [46 x i8], [46 x i8], i32, i32 }
%struct.curl_certinfo = type { i32, ptr }
%struct.curl_tlssessioninfo = type { i32, ptr }
%struct.curl_trc_feat = type { ptr, i32 }

@Curl_auth_decode_ntlm_type2_message.type2_marker = internal constant [4 x i8] c"\02\00\00\00", align 1
@.str = private unnamed_addr constant [8 x i8] c"NTLMSSP\00", align 1
@.str.1 = private unnamed_addr constant [44 x i8] c"NTLM handshake failure (bad type-2 message)\00", align 1
@Curl_cfree = external global ptr, align 8
@.str.7 = private unnamed_addr constant [97 x i8] c"NTLM handshake failure (bad type-2 message). Target Info Offset Len is set incorrect by the peer\00", align 1

; Function Attrs: nounwind uwtable
define internal i32 @ntlm_decode_type2_target(ptr noundef %0, ptr noundef %1, ptr noundef %2) #0 {
  %4 = alloca i32, align 4
  %5 = alloca ptr, align 8
  %6 = alloca ptr, align 8
  %7 = alloca ptr, align 8
  %8 = alloca i16, align 2
  %9 = alloca i32, align 4
  %10 = alloca ptr, align 8
  %11 = alloca i64, align 8
  %12 = alloca i32, align 4
  store ptr %0, ptr %5, align 8, !tbaa !3
  store ptr %1, ptr %6, align 8, !tbaa !8
  store ptr %2, ptr %7, align 8, !tbaa !10
  call void @llvm.lifetime.start.p0(i64 2, ptr %8) #6
  store i16 0, ptr %8, align 2, !tbaa !88
  call void @llvm.lifetime.start.p0(i64 4, ptr %9) #6
  store i32 0, ptr %9, align 4, !tbaa !12
  call void @llvm.lifetime.start.p0(i64 8, ptr %10) #6
  %13 = load ptr, ptr %6, align 8, !tbaa !8
  %14 = call ptr @Curl_bufref_ptr(ptr noundef %13)
  store ptr %14, ptr %10, align 8, !tbaa !14
  call void @llvm.lifetime.start.p0(i64 8, ptr %11) #6
  %15 = load ptr, ptr %6, align 8, !tbaa !8
  %16 = call i64 @Curl_bufref_len(ptr noundef %15)
  store i64 %16, ptr %11, align 8, !tbaa !16
  %17 = load i64, ptr %11, align 8, !tbaa !16
  %18 = icmp uge i64 %17, 48
  br i1 %18, label %19, label %98

19:                                               ; preds = %3
  %20 = load ptr, ptr %10, align 8, !tbaa !14
  %21 = getelementptr inbounds i8, ptr %20, i64 40
  %22 = call zeroext i16 @Curl_read16_le(ptr noundef %21)
  store i16 %22, ptr %8, align 2, !tbaa !88
  %23 = load ptr, ptr %10, align 8, !tbaa !14
  %24 = getelementptr inbounds i8, ptr %23, i64 44
  %25 = call i32 @Curl_read32_le(ptr noundef %24)
  store i32 %25, ptr %9, align 4, !tbaa !12
  %26 = load i16, ptr %8, align 2, !tbaa !88
  %27 = zext i16 %26 to i32
  %28 = icmp sgt i32 %27, 0
  br i1 %28, label %29, label %97

29:                                               ; preds = %19
  %30 = load i32, ptr %9, align 4, !tbaa !12
  %31 = zext i32 %30 to i64
  %32 = load i64, ptr %11, align 8, !tbaa !16
  %33 = icmp ugt i64 %31, %32
  br i1 %33, label %45, label %34

34:                                               ; preds = %29
  %35 = load i32, ptr %9, align 4, !tbaa !12
  %36 = load i16, ptr %8, align 2, !tbaa !88
  %37 = zext i16 %36 to i32
  %38 = add i32 %35, %37
  %39 = zext i32 %38 to i64
  %40 = load i64, ptr %11, align 8, !tbaa !16
  %41 = icmp ugt i64 %39, %40
  br i1 %41, label %45, label %42

42:                                               ; preds = %34
  %43 = load i32, ptr %9, align 4, !tbaa !12
  %44 = icmp ult i32 %43, 48
  br i1 %44, label %45, label %77

45:                                               ; preds = %42, %34, %29
  br label %46

46:                                               ; preds = %45
  %47 = load ptr, ptr %5, align 8, !tbaa !3
  %48 = icmp ne ptr %47, null
  br i1 %48, label %49, label %74

49:                                               ; preds = %46
  %50 = load ptr, ptr %5, align 8, !tbaa !3
  %51 = getelementptr inbounds nuw %struct.Curl_easy, ptr %50, i32 0, i32 16
  %52 = getelementptr inbounds nuw %struct.UserDefined, ptr %51, i32 0, i32 119
  %53 = load i64, ptr %52, align 2
  %54 = lshr i64 %53, 31
  %55 = and i64 %54, 1
  %56 = trunc i64 %55 to i32
  %57 = icmp ne i32 %56, 0
  br i1 %57, label %58, label %74

58:                                               ; preds = %49
  %59 = load ptr, ptr %5, align 8, !tbaa !3
  %60 = getelementptr inbounds nuw %struct.Curl_easy, ptr %59, i32 0, i32 21
  %61 = getelementptr inbounds nuw %struct.UrlState, ptr %60, i32 0, i32 50
  %62 = load ptr, ptr %61, align 8, !tbaa !20
  %63 = icmp ne ptr %62, null
  br i1 %63, label %64, label %72

64:                                               ; preds = %58
  %65 = load ptr, ptr %5, align 8, !tbaa !3
  %66 = getelementptr inbounds nuw %struct.Curl_easy, ptr %65, i32 0, i32 21
  %67 = getelementptr inbounds nuw %struct.UrlState, ptr %66, i32 0, i32 50
  %68 = load ptr, ptr %67, align 8, !tbaa !20
  %69 = getelementptr inbounds nuw %struct.curl_trc_feat, ptr %68, i32 0, i32 1
  %70 = load i32, ptr %69, align 8, !tbaa !86
  %71 = icmp sge i32 %70, 1
  br i1 %71, label %72, label %74

72:                                               ; preds = %64, %58
  %73 = load ptr, ptr %5, align 8, !tbaa !3
  call void (ptr, ptr, ...) @Curl_infof(ptr noundef %73, ptr noundef @.str.7)
  br label %74

74:                                               ; preds = %72, %64, %49, %46
  br label %75

75:                                               ; preds = %74
  br label %76

76:                                               ; preds = %75
  store i32 61, ptr %4, align 4
  store i32 1, ptr %12, align 4
  br label %103

77:                                               ; preds = %42
  %78 = load ptr, ptr @Curl_cfree, align 8, !tbaa !89
  %79 = load ptr, ptr %7, align 8, !tbaa !10
  %80 = getelementptr inbounds nuw %struct.ntlmdata, ptr %79, i32 0, i32 3
  %81 = load ptr, ptr %80, align 8, !tbaa !90
  call void %78(ptr noundef %81)
  %82 = load ptr, ptr %10, align 8, !tbaa !14
  %83 = load i32, ptr %9, align 4, !tbaa !12
  %84 = zext i32 %83 to i64
  %85 = getelementptr inbounds nuw i8, ptr %82, i64 %84
  %86 = load i16, ptr %8, align 2, !tbaa !88
  %87 = zext i16 %86 to i64
  %88 = call ptr @Curl_memdup(ptr noundef %85, i64 noundef %87)
  %89 = load ptr, ptr %7, align 8, !tbaa !10
  %90 = getelementptr inbounds nuw %struct.ntlmdata, ptr %89, i32 0, i32 3
  store ptr %88, ptr %90, align 8, !tbaa !90
  %91 = load ptr, ptr %7, align 8, !tbaa !10
  %92 = getelementptr inbounds nuw %struct.ntlmdata, ptr %91, i32 0, i32 3
  %93 = load ptr, ptr %92, align 8, !tbaa !90
  %94 = icmp ne ptr %93, null
  br i1 %94, label %96, label %95

95:                                               ; preds = %77
  store i32 27, ptr %4, align 4
  store i32 1, ptr %12, align 4
  br label %103

96:                                               ; preds = %77
  br label %97

97:                                               ; preds = %96, %19
  br label %98

98:                                               ; preds = %97, %3
  %99 = load i16, ptr %8, align 2, !tbaa !88
  %100 = zext i16 %99 to i32
  %101 = load ptr, ptr %7, align 8, !tbaa !10
  %102 = getelementptr inbounds nuw %struct.ntlmdata, ptr %101, i32 0, i32 2
  store i32 %100, ptr %102, align 4, !tbaa !91
  store i32 0, ptr %4, align 4
  store i32 1, ptr %12, align 4
  br label %103

103:                                              ; preds = %98, %95, %76
  call void @llvm.lifetime.end.p0(i64 8, ptr %11) #6
  call void @llvm.lifetime.end.p0(i64 8, ptr %10) #6
  call void @llvm.lifetime.end.p0(i64 4, ptr %9) #6
  call void @llvm.lifetime.end.p0(i64 2, ptr %8) #6
  %104 = load i32, ptr %4, align 4
  ret i32 %104
}

; Function Attrs: nounwind uwtable
define hidden i32 @Curl_auth_decode_ntlm_type2_message(ptr noundef %0, ptr noundef %1, ptr noundef %2) #0 {
  %4 = alloca i32, align 4
  %5 = alloca ptr, align 8
  %6 = alloca ptr, align 8
  %7 = alloca ptr, align 8
  %8 = alloca i32, align 4
  %9 = alloca ptr, align 8
  %10 = alloca i64, align 8
  %11 = alloca i32, align 4
  store ptr %0, ptr %5, align 8, !tbaa !3
  store ptr %1, ptr %6, align 8, !tbaa !8
  store ptr %2, ptr %7, align 8, !tbaa !10
  call void @llvm.lifetime.start.p0(i64 4, ptr %8) #6
  store i32 0, ptr %8, align 4, !tbaa !12
  call void @llvm.lifetime.start.p0(i64 8, ptr %9) #6
  %12 = load ptr, ptr %6, align 8, !tbaa !8
  %13 = call ptr @Curl_bufref_ptr(ptr noundef %12)
  store ptr %13, ptr %9, align 8, !tbaa !14
  call void @llvm.lifetime.start.p0(i64 8, ptr %10) #6
  %14 = load ptr, ptr %6, align 8, !tbaa !8
  %15 = call i64 @Curl_bufref_len(ptr noundef %14)
  store i64 %15, ptr %10, align 8, !tbaa !16
  %16 = load ptr, ptr %7, align 8, !tbaa !10
  %17 = getelementptr inbounds nuw %struct.ntlmdata, ptr %16, i32 0, i32 0
  store i32 0, ptr %17, align 8, !tbaa !18
  %18 = load i64, ptr %10, align 8, !tbaa !16
  %19 = icmp ult i64 %18, 32
  br i1 %19, label %29, label %20

20:                                               ; preds = %3
  %21 = load ptr, ptr %9, align 8, !tbaa !14
  %22 = call i32 @memcmp(ptr noundef %21, ptr noundef @.str, i64 noundef 8) #7
  %23 = icmp ne i32 %22, 0
  br i1 %23, label %29, label %24

24:                                               ; preds = %20
  %25 = load ptr, ptr %9, align 8, !tbaa !14
  %26 = getelementptr inbounds i8, ptr %25, i64 8
  %27 = call i32 @memcmp(ptr noundef %26, ptr noundef @Curl_auth_decode_ntlm_type2_message.type2_marker, i64 noundef 4) #7
  %28 = icmp ne i32 %27, 0
  br i1 %28, label %29, label %61

29:                                               ; preds = %24, %20, %3
  br label %30

30:                                               ; preds = %29
  %31 = load ptr, ptr %5, align 8, !tbaa !3
  %32 = icmp ne ptr %31, null
  br i1 %32, label %33, label %58

33:                                               ; preds = %30
  %34 = load ptr, ptr %5, align 8, !tbaa !3
  %35 = getelementptr inbounds nuw %struct.Curl_easy, ptr %34, i32 0, i32 16
  %36 = getelementptr inbounds nuw %struct.UserDefined, ptr %35, i32 0, i32 119
  %37 = load i64, ptr %36, align 2
  %38 = lshr i64 %37, 31
  %39 = and i64 %38, 1
  %40 = trunc i64 %39 to i32
  %41 = icmp ne i32 %40, 0
  br i1 %41, label %42, label %58

42:                                               ; preds = %33
  %43 = load ptr, ptr %5, align 8, !tbaa !3
  %44 = getelementptr inbounds nuw %struct.Curl_easy, ptr %43, i32 0, i32 21
  %45 = getelementptr inbounds nuw %struct.UrlState, ptr %44, i32 0, i32 50
  %46 = load ptr, ptr %45, align 8, !tbaa !20
  %47 = icmp ne ptr %46, null
  br i1 %47, label %48, label %56

48:                                               ; preds = %42
  %49 = load ptr, ptr %5, align 8, !tbaa !3
  %50 = getelementptr inbounds nuw %struct.Curl_easy, ptr %49, i32 0, i32 21
  %51 = getelementptr inbounds nuw %struct.UrlState, ptr %50, i32 0, i32 50
  %52 = load ptr, ptr %51, align 8, !tbaa !20
  %53 = getelementptr inbounds nuw %struct.curl_trc_feat, ptr %52, i32 0, i32 1
  %54 = load i32, ptr %53, align 8, !tbaa !86
  %55 = icmp sge i32 %54, 1
  br i1 %55, label %56, label %58

56:                                               ; preds = %48, %42
  %57 = load ptr, ptr %5, align 8, !tbaa !3
  call void (ptr, ptr, ...) @Curl_infof(ptr noundef %57, ptr noundef @.str.1)
  br label %58

58:                                               ; preds = %56, %48, %33, %30
  br label %59

59:                                               ; preds = %58
  br label %60

60:                                               ; preds = %59
  store i32 61, ptr %4, align 4
  store i32 1, ptr %11, align 4
  br label %123

61:                                               ; preds = %24
  %62 = load ptr, ptr %9, align 8, !tbaa !14
  %63 = getelementptr inbounds i8, ptr %62, i64 20
  %64 = call i32 @Curl_read32_le(ptr noundef %63)
  %65 = load ptr, ptr %7, align 8, !tbaa !10
  %66 = getelementptr inbounds nuw %struct.ntlmdata, ptr %65, i32 0, i32 0
  store i32 %64, ptr %66, align 8, !tbaa !18
  %67 = load ptr, ptr %7, align 8, !tbaa !10
  %68 = getelementptr inbounds nuw %struct.ntlmdata, ptr %67, i32 0, i32 1
  %69 = getelementptr inbounds [8 x i8], ptr %68, i64 0, i64 0
  %70 = load ptr, ptr %9, align 8, !tbaa !14
  %71 = getelementptr inbounds i8, ptr %70, i64 24
  call void @llvm.memcpy.p0.p0.i64(ptr align 4 %69, ptr align 1 %71, i64 8, i1 false)
  %72 = load ptr, ptr %7, align 8, !tbaa !10
  %73 = getelementptr inbounds nuw %struct.ntlmdata, ptr %72, i32 0, i32 0
  %74 = load i32, ptr %73, align 8, !tbaa !18
  %75 = and i32 %74, 8388608
  %76 = icmp ne i32 %75, 0
  br i1 %76, label %77, label %118

77:                                               ; preds = %61
  %78 = load ptr, ptr %5, align 8, !tbaa !3
  %79 = load ptr, ptr %6, align 8, !tbaa !8
  %80 = load ptr, ptr %7, align 8, !tbaa !10
  %81 = call i32 @ntlm_decode_type2_target(ptr noundef %78, ptr noundef %79, ptr noundef %80)
  store i32 %81, ptr %8, align 4, !tbaa !12
  %82 = load i32, ptr %8, align 4, !tbaa !12
  %83 = icmp ne i32 %82, 0
  br i1 %83, label %84, label %117

84:                                               ; preds = %77
  br label %85

85:                                               ; preds = %84
  %86 = load ptr, ptr %5, align 8, !tbaa !3
  %87 = icmp ne ptr %86, null
  br i1 %87, label %88, label %113

88:                                               ; preds = %85
  %89 = load ptr, ptr %5, align 8, !tbaa !3
  %90 = getelementptr inbounds nuw %struct.Curl_easy, ptr %89, i32 0, i32 16
  %91 = getelementptr inbounds nuw %struct.UserDefined, ptr %90, i32 0, i32 119
  %92 = load i64, ptr %91, align 2
  %93 = lshr i64 %92, 31
  %94 = and i64 %93, 1
  %95 = trunc i64 %94 to i32
  %96 = icmp ne i32 %95, 0
  br i1 %96, label %97, label %113

97:                                               ; preds = %88
  %98 = load ptr, ptr %5, align 8, !tbaa !3
  %99 = getelementptr inbounds nuw %struct.Curl_easy, ptr %98, i32 0, i32 21
  %100 = getelementptr inbounds nuw %struct.UrlState, ptr %99, i32 0, i32 50
  %101 = load ptr, ptr %100, align 8, !tbaa !20
  %102 = icmp ne ptr %101, null
  br i1 %102, label %103, label %111

103:                                              ; preds = %97
  %104 = load ptr, ptr %5, align 8, !tbaa !3
  %105 = getelementptr inbounds nuw %struct.Curl_easy, ptr %104, i32 0, i32 21
  %106 = getelementptr inbounds nuw %struct.UrlState, ptr %105, i32 0, i32 50
  %107 = load ptr, ptr %106, align 8, !tbaa !20
  %108 = getelementptr inbounds nuw %struct.curl_trc_feat, ptr %107, i32 0, i32 1
  %109 = load i32, ptr %108, align 8, !tbaa !86
  %110 = icmp sge i32 %109, 1
  br i1 %110, label %111, label %113

111:                                              ; preds = %103, %97
  %112 = load ptr, ptr %5, align 8, !tbaa !3
  call void (ptr, ptr, ...) @Curl_infof(ptr noundef %112, ptr noundef @.str.1)
  br label %113

113:                                              ; preds = %111, %103, %88, %85
  br label %114

114:                                              ; preds = %113
  br label %115

115:                                              ; preds = %114
  %116 = load i32, ptr %8, align 4, !tbaa !12
  store i32 %116, ptr %4, align 4
  store i32 1, ptr %11, align 4
  br label %123

117:                                              ; preds = %77
  br label %118

118:                                              ; preds = %117, %61
  br label %119

119:                                              ; preds = %118
  br label %120

120:                                              ; preds = %119
  br label %121

121:                                              ; preds = %120
  %122 = load i32, ptr %8, align 4, !tbaa !12
  store i32 %122, ptr %4, align 4
  store i32 1, ptr %11, align 4
  br label %123

123:                                              ; preds = %121, %115, %60
  call void @llvm.lifetime.end.p0(i64 8, ptr %10) #6
  call void @llvm.lifetime.end.p0(i64 8, ptr %9) #6
  call void @llvm.lifetime.end.p0(i64 4, ptr %8) #6
  %124 = load i32, ptr %4, align 4
  ret i32 %124
}