; Function Attrs: nounwind uwtable
define hidden range(i32 0, 62) i32 @Curl_auth_decode_ntlm_type2_message(ptr noundef %0, ptr noundef %1, ptr noundef captures(none) initializes((0, 4)) %2) local_unnamed_addr #1 {
  %4 = tail call ptr @Curl_bufref_ptr(ptr noundef %1) #8
  %5 = tail call i64 @Curl_bufref_len(ptr noundef %1) #8
  store i32 0, ptr %2, align 8, !tbaa !3
  %6 = icmp ult i64 %5, 32
  br i1 %6, label %10, label %7

7:                                                ; preds = %3
  %bcmp = tail call i32 @bcmp(ptr noundef nonnull dereferenceable(8) %4, ptr noundef nonnull dereferenceable(8) @.str, i64 8)
  %.not = icmp eq i32 %bcmp, 0
  br i1 %.not, label %8, label %10

8:                                                ; preds = %7
  %9 = getelementptr inbounds nuw i8, ptr %4, i64 8
  %bcmp33 = tail call i32 @bcmp(ptr noundef nonnull dereferenceable(4) %9, ptr noundef nonnull dereferenceable(4) @Curl_auth_decode_ntlm_type2_message.type2_marker, i64 4)
  %.not34 = icmp eq i32 %bcmp33, 0
  br i1 %.not34, label %23, label %10

10:                                               ; preds = %3, %7, %8
  %.not40 = icmp eq ptr %0, null
  br i1 %.not40, label %.thread49, label %11

11:                                               ; preds = %10
  %12 = getelementptr inbounds nuw i8, ptr %0, i64 2658
  %13 = load i64, ptr %12, align 2
  %14 = and i64 %13, 2147483648
  %.not41 = icmp eq i64 %14, 0
  br i1 %.not41, label %.thread49, label %15

15:                                               ; preds = %11
  %16 = getelementptr inbounds nuw i8, ptr %0, i64 4864
  %17 = load ptr, ptr %16, align 8, !tbaa !9
  %.not42 = icmp eq ptr %17, null
  br i1 %.not42, label %22, label %18

18:                                               ; preds = %15
  %19 = getelementptr inbounds nuw i8, ptr %17, i64 8
  %20 = load i32, ptr %19, align 8, !tbaa !77
  %21 = icmp sgt i32 %20, 0
  br i1 %21, label %22, label %.thread49

22:                                               ; preds = %18, %15
  tail call void (ptr, ptr, ...) @Curl_infof(ptr noundef nonnull %0, ptr noundef nonnull @.str.1) #8
  br label %.thread49

23:                                               ; preds = %8
  %24 = getelementptr inbounds nuw i8, ptr %4, i64 20
  %25 = tail call i32 @Curl_read32_le(ptr noundef nonnull %24) #8
  store i32 %25, ptr %2, align 8, !tbaa !3
  %26 = getelementptr inbounds nuw i8, ptr %2, i64 4
  %27 = getelementptr inbounds nuw i8, ptr %4, i64 24
  %28 = load i64, ptr %27, align 1
  store i64 %28, ptr %26, align 4
  %29 = and i32 %25, 8388608
  %.not35 = icmp eq i32 %29, 0
  br i1 %.not35, label %.thread49, label %30

30:                                               ; preds = %23
  %31 = tail call ptr @Curl_bufref_ptr(ptr noundef %1) #8
  %32 = tail call i64 @Curl_bufref_len(ptr noundef %1) #8
  %33 = icmp ugt i64 %32, 47
  br i1 %33, label %34, label %ntlm_decode_type2_target.exit

34:                                               ; preds = %30
  %35 = getelementptr inbounds nuw i8, ptr %31, i64 40
  %36 = tail call zeroext i16 @Curl_read16_le(ptr noundef nonnull %35) #8
  %37 = getelementptr inbounds nuw i8, ptr %31, i64 44
  %38 = tail call i32 @Curl_read32_le(ptr noundef nonnull %37) #8
  %39 = zext i16 %36 to i32
  %.not.i = icmp eq i16 %36, 0
  br i1 %.not.i, label %ntlm_decode_type2_target.exit, label %40

40:                                               ; preds = %34
  %41 = zext i32 %38 to i64
  %42 = icmp ult i64 %32, %41
  br i1 %42, label %48, label %43

43:                                               ; preds = %40
  %44 = add i32 %38, %39
  %45 = zext i32 %44 to i64
  %46 = icmp ult i64 %32, %45
  %47 = icmp ult i32 %38, 48
  %or.cond.i = select i1 %46, i1 true, i1 %47
  br i1 %or.cond.i, label %48, label %61

48:                                               ; preds = %43, %40
  %.not33.i = icmp eq ptr %0, null
  br i1 %.not33.i, label %.thread49, label %49

49:                                               ; preds = %48
  %50 = getelementptr inbounds nuw i8, ptr %0, i64 2658
  %51 = load i64, ptr %50, align 2
  %52 = and i64 %51, 2147483648
  %.not34.i = icmp eq i64 %52, 0
  br i1 %.not34.i, label %.thread, label %53

53:                                               ; preds = %49
  %54 = getelementptr inbounds nuw i8, ptr %0, i64 4864
  %55 = load ptr, ptr %54, align 8, !tbaa !9
  %.not35.i = icmp eq ptr %55, null
  br i1 %.not35.i, label %60, label %56

56:                                               ; preds = %53
  %57 = getelementptr inbounds nuw i8, ptr %55, i64 8
  %58 = load i32, ptr %57, align 8, !tbaa !77
  %59 = icmp sgt i32 %58, 0
  br i1 %59, label %60, label %.thread

60:                                               ; preds = %56, %53
  tail call void (ptr, ptr, ...) @Curl_infof(ptr noundef nonnull %0, ptr noundef nonnull @.str.7) #8
  br label %.thread

61:                                               ; preds = %43
  %62 = load ptr, ptr @Curl_cfree, align 8, !tbaa !79
  %63 = getelementptr inbounds nuw i8, ptr %2, i64 16
  %64 = load ptr, ptr %63, align 8, !tbaa !80
  tail call void %62(ptr noundef %64) #8
  %65 = getelementptr inbounds nuw i8, ptr %31, i64 %41
  %66 = zext i16 %36 to i64
  %67 = tail call ptr @Curl_memdup(ptr noundef %65, i64 noundef %66) #8
  store ptr %67, ptr %63, align 8, !tbaa !80
  %.not32.i = icmp eq ptr %67, null
  br i1 %.not32.i, label %70, label %ntlm_decode_type2_target.exit

ntlm_decode_type2_target.exit:                    ; preds = %30, %34, %61
  %.026.i = phi i16 [ %36, %61 ], [ 0, %34 ], [ 0, %30 ]
  %68 = zext i16 %.026.i to i32
  %69 = getelementptr inbounds nuw i8, ptr %2, i64 12
  store i32 %68, ptr %69, align 4, !tbaa !81
  br label %.thread49

70:                                               ; preds = %61
  %.not37 = icmp eq ptr %0, null
  br i1 %.not37, label %.thread49, label %.thread

.thread:                                          ; preds = %49, %56, %60, %70
  %.0.i.ph48 = phi i32 [ 27, %70 ], [ 61, %60 ], [ 61, %56 ], [ 61, %49 ]
  %71 = getelementptr inbounds nuw i8, ptr %0, i64 2658
  %72 = load i64, ptr %71, align 2
  %73 = and i64 %72, 2147483648
  %.not38 = icmp eq i64 %73, 0
  br i1 %.not38, label %.thread49, label %74

74:                                               ; preds = %.thread
  %75 = getelementptr inbounds nuw i8, ptr %0, i64 4864
  %76 = load ptr, ptr %75, align 8, !tbaa !9
  %.not39 = icmp eq ptr %76, null
  br i1 %.not39, label %81, label %77

77:                                               ; preds = %74
  %78 = getelementptr inbounds nuw i8, ptr %76, i64 8
  %79 = load i32, ptr %78, align 8, !tbaa !77
  %80 = icmp sgt i32 %79, 0
  br i1 %80, label %81, label %.thread49

81:                                               ; preds = %77, %74
  tail call void (ptr, ptr, ...) @Curl_infof(ptr noundef nonnull %0, ptr noundef nonnull @.str.1) #8
  br label %.thread49

.thread49:                                        ; preds = %48, %ntlm_decode_type2_target.exit, %23, %70, %.thread, %77, %81, %10, %11, %18, %22
  %.0 = phi i32 [ 61, %22 ], [ 61, %18 ], [ 61, %11 ], [ 61, %10 ], [ %.0.i.ph48, %81 ], [ %.0.i.ph48, %77 ], [ %.0.i.ph48, %.thread ], [ 27, %70 ], [ 0, %23 ], [ 0, %ntlm_decode_type2_target.exit ], [ 61, %48 ]
  ret i32 %.0
}